target datalayout = "e-m:e-p270:32:32-p271:32:32-p272:64:64-i64:64-i128:128-f80:128-n8:16:32:64-S128"
target triple = "x86_64-pc-linux-gnu"

@.str.80 = private unnamed_addr constant [39 x i8] c"../cpython/Modules/_testinternalcapi.c\00", align 1
@.str.93 = private unnamed_addr constant [20 x i8] c"value == VALUE(key)\00", align 1
@__PRETTY_FUNCTION__.hashtable_cb = private unnamed_addr constant [72 x i8] c"int hashtable_cb(_Py_hashtable_t *, const void *, const void *, void *)\00", align 1

; Function Attrs: nounwind uwtable
define internal i32 @hashtable_cb(ptr noundef %0, ptr noundef %1, ptr noundef %2, ptr noundef %3) #0 {
  %5 = alloca ptr, align 8
  %6 = alloca ptr, align 8
  %7 = alloca ptr, align 8
  %8 = alloca ptr, align 8
  %9 = alloca ptr, align 8
  %10 = alloca i8, align 1
  %11 = alloca i32, align 4
  store ptr %0, ptr %5, align 8, !tbaa !28
  store ptr %1, ptr %6, align 8, !tbaa !8
  store ptr %2, ptr %7, align 8, !tbaa !8
  store ptr %3, ptr %8, align 8, !tbaa !8
  call void @llvm.lifetime.start.p0(i64 8, ptr %9) #10
  %12 = load ptr, ptr %8, align 8, !tbaa !8
  store ptr %12, ptr %9, align 8, !tbaa !44
  call void @llvm.lifetime.start.p0(i64 1, ptr %10) #10
  %13 = load ptr, ptr %6, align 8, !tbaa !8
  %14 = ptrtoint ptr %13 to i64
  %15 = trunc i64 %14 to i8
  store i8 %15, ptr %10, align 1, !tbaa !34
  call void @llvm.lifetime.start.p0(i64 4, ptr %11) #10
  %16 = load ptr, ptr %7, align 8, !tbaa !8
  %17 = ptrtoint ptr %16 to i64
  %18 = trunc i64 %17 to i32
  store i32 %18, ptr %11, align 4, !tbaa !26
  %19 = load i32, ptr %11, align 4, !tbaa !26
  %20 = load i8, ptr %10, align 1, !tbaa !34
  %21 = sext i8 %20 to i32
  %22 = sub i32 %21, 97
  %23 = add i32 1, %22
  %24 = icmp eq i32 %19, %23
  br i1 %24, label %25, label %26

25:                                               ; preds = %4
  br label %28

26:                                               ; preds = %4
  call void @__assert_fail(ptr noundef @.str.93, ptr noundef @.str.80, i32 noundef 249, ptr noundef @__PRETTY_FUNCTION__.hashtable_cb) #11
  unreachable

27:                                               ; No predecessors!
  br label %28

28:                                               ; preds = %27, %25
  %29 = load ptr, ptr %9, align 8, !tbaa !44
  %30 = load i32, ptr %29, align 4, !tbaa !26
  %31 = add i32 %30, 1
  store i32 %31, ptr %29, align 4, !tbaa !26
  call void @llvm.lifetime.end.p0(i64 4, ptr %11) #10
  call void @llvm.lifetime.end.p0(i64 1, ptr %10) #10
  call void @llvm.lifetime.end.p0(i64 8, ptr %9) #10
  ret i32 0
}