; Function Attrs: nounwind uwtable
define internal noundef i32 @hashtable_cb(ptr readnone captures(none) %0, ptr noundef %1, ptr noundef %2, ptr noundef captures(none) %3) #0 {
  %5 = ptrtoint ptr %1 to i64
  %6 = trunc i64 %5 to i32
  %7 = ptrtoint ptr %2 to i64
  %8 = trunc i64 %7 to i32
  %sext = shl i32 %6, 24
  %9 = ashr exact i32 %sext, 24
  %10 = add nsw i32 %9, -96
  %11 = icmp eq i32 %10, %8
  br i1 %11, label %13, label %12

12:                                               ; preds = %4
  tail call void @__assert_fail(ptr noundef nonnull @.str.93, ptr noundef nonnull @.str.80, i32 noundef 249, ptr noundef nonnull @__PRETTY_FUNCTION__.hashtable_cb) #12
  unreachable

13:                                               ; preds = %4
  %14 = load i32, ptr %3, align 4, !tbaa !25
  %15 = add i32 %14, 1
  store i32 %15, ptr %3, align 4, !tbaa !25
  ret i32 0
}